(dp0
S'mark'
p1
(S'8\x8eg\xe8^\x9cT\xddg;l$_\x17_\x98'
p2
L366035171285713307789197758372197521224363358643471989838137878363681105223291107327914642233744058733461221412817285271644414058314940098405474815470788157325069632814524028618527027393437022748282278232885492189337882071819866144312942803196693358230799390788270233586308578892149839410203008443204156948L
I0
tp3
s.